; Function Attrs: nofree nosync nounwind memory(argmem: readwrite) uwtable
define void @Lms_ObjAreaMark_rec(ptr noundef captures(none) %0) local_unnamed_addr #1 {
  %2 = load i64, ptr %0, align 4
  %3 = and i64 %2, 1073741824
  %.not6 = icmp ne i64 %3, 0
  %4 = and i64 %2, 2684354559
  %narrow.i.not7 = icmp eq i64 %4, 2684354559
  %or.cond8 = or i1 %.not6, %narrow.i.not7
  br i1 %or.cond8, label %tailrecurse._crit_edge, label %tailrecurse

tailrecurse:                                      ; preds = %1, %tailrecurse
  %5 = phi i64 [ %15, %tailrecurse ], [ %2, %1 ]
  %.tr9 = phi ptr [ %14, %tailrecurse ], [ %0, %1 ]
  %6 = or disjoint i64 %5, 1073741824
  store i64 %6, ptr %.tr9, align 4
  %7 = and i64 %5, 536870911
  %8 = sub nsw i64 0, %7
  %9 = getelementptr inbounds %struct.Gia_Obj_t_, ptr %.tr9, i64 %8
  tail call void @Lms_ObjAreaMark_rec(ptr noundef nonnull %9)
  %10 = load i64, ptr %.tr9, align 4
  %11 = lshr i64 %10, 32
  %12 = and i64 %11, 536870911
  %13 = sub nsw i64 0, %12
  %14 = getelementptr inbounds %struct.Gia_Obj_t_, ptr %.tr9, i64 %13
  %15 = load i64, ptr %14, align 4
  %16 = and i64 %15, 1073741824
  %.not = icmp ne i64 %16, 0
  %17 = and i64 %15, 2684354559
  %narrow.i.not = icmp eq i64 %17, 2684354559
  %or.cond = or i1 %.not, %narrow.i.not
  br i1 %or.cond, label %tailrecurse._crit_edge, label %tailrecurse

tailrecurse._crit_edge:                           ; preds = %tailrecurse, %1
  ret void
}